; Function Attrs: mustprogress nofree norecurse nosync nounwind willreturn memory(argmem: readwrite) uwtable
define dso_local noundef zeroext i1 @_ZN5clang8DeclSpec25SetStorageClassSpecThreadENS_27ThreadStorageClassSpecifierENS_14SourceLocationERPKcRj(ptr nocapture noundef nonnull align 8 dereferenceable(360) %0, i32 noundef %1, i32 %2, ptr nocapture noundef nonnull writeonly align 8 dereferenceable(8) %3, ptr nocapture noundef nonnull writeonly align 4 dereferenceable(4) %4) local_unnamed_addr #0 align 2 {
  %6 = load i64, ptr %0, align 8
  %7 = trunc i64 %6 to i32
  %8 = lshr i32 %7, 3
  %9 = and i32 %8, 3
  %.not = icmp ne i32 %9, 0
  br i1 %.not, label %switch.lookup, label %11

switch.lookup:                                    ; preds = %5
  %switch.tableidx = add nsw i32 %9, -1
  %10 = sext i32 %switch.tableidx to i64
  %switch.gep = getelementptr inbounds [3 x ptr], ptr @switch.table._ZN5clang8DeclSpec6FinishERNS_4SemaERKNS_14PrintingPolicyE.10, i64 0, i64 %10
  %switch.load = load ptr, ptr %switch.gep, align 8
  store ptr %switch.load, ptr %3, align 8
  %.not.i = icmp eq i32 %1, %9
  %..i = select i1 %.not.i, i32 99, i32 3693
  store i32 %..i, ptr %4, align 4
  br label %18

11:                                               ; preds = %5
  %12 = shl i32 %1, 3
  %13 = and i32 %12, 24
  %14 = zext nneg i32 %13 to i64
  %15 = and i64 %6, -25
  %16 = or disjoint i64 %15, %14
  store i64 %16, ptr %0, align 8
  %17 = getelementptr inbounds nuw i8, ptr %0, i64 236
  store i32 %2, ptr %17, align 4
  br label %18

18:                                               ; preds = %11, %switch.lookup
  ret i1 %.not
}